; Function Attrs: mustprogress noreturn uwtable
define noalias noundef nonnull ptr @lean_llvm_const_string(i64 noundef %0, ptr noundef %1, ptr noundef readnone captures(none) %2) local_unnamed_addr #5 personality ptr @__gxx_personality_v0 {
  %4 = ptrtoint ptr %1 to i64
  %5 = and i64 %4, 1
  %.not.i.i.i = icmp eq i64 %5, 0
  br i1 %.not.i.i.i, label %6, label %_ZN4lean10string_refC2EP11lean_objectb.exit

6:                                                ; preds = %3
  %.val.i.i.i.i = load i32, ptr %1, align 4, !tbaa !3
  %7 = icmp sgt i32 %.val.i.i.i.i, 0
  br i1 %7, label %8, label %10, !prof !19

8:                                                ; preds = %6
  %9 = add nuw nsw i32 %.val.i.i.i.i, 1
  store i32 %9, ptr %1, align 4, !tbaa !3
  br label %_ZN4lean10string_refC2EP11lean_objectb.exit

10:                                               ; preds = %6
  %.not.i.i.i.i = icmp eq i32 %.val.i.i.i.i, 0
  br i1 %.not.i.i.i.i, label %_ZN4lean10string_refC2EP11lean_objectb.exit, label %11

11:                                               ; preds = %10
  tail call void @lean_inc_ref_cold(ptr noundef nonnull %1)
  br label %_ZN4lean10string_refC2EP11lean_objectb.exit

_ZN4lean10string_refC2EP11lean_objectb.exit:      ; preds = %3, %8, %10, %11
  invoke void @_ZN4lean26notify_assertion_violationEPKciS1_(ptr noundef nonnull @.str, i32 noundef 986, ptr noundef nonnull @.str.1)
          to label %12 unwind label %17

12:                                               ; preds = %_ZN4lean10string_refC2EP11lean_objectb.exit
  %13 = tail call ptr @__cxa_allocate_exception(i64 40) #11
  %14 = getelementptr inbounds nuw i8, ptr %13, i64 8
  %15 = getelementptr inbounds nuw i8, ptr %13, i64 24
  store ptr %15, ptr %14, align 8, !tbaa !10
  %16 = getelementptr inbounds nuw i8, ptr %13, i64 16
  store i64 0, ptr %16, align 8, !tbaa !13
  store i8 0, ptr %15, align 1, !tbaa !16
  store ptr getelementptr inbounds nuw inrange(-16, 24) (i8, ptr @_ZTVN4lean19unreachable_reachedE, i64 16), ptr %13, align 8, !tbaa !17
  invoke void @__cxa_throw(ptr nonnull %13, ptr nonnull @_ZTIN4lean19unreachable_reachedE, ptr nonnull @_ZN4lean9throwableD2Ev) #12
          to label %29 unwind label %17

17:                                               ; preds = %12, %_ZN4lean10string_refC2EP11lean_objectb.exit
  %18 = landingpad { ptr, i32 }
          cleanup
  br i1 %.not.i.i.i, label %19, label %_ZN4lean10object_refD2Ev.exit

19:                                               ; preds = %17
  %20 = load i32, ptr %1, align 4, !tbaa !3
  %21 = icmp sgt i32 %20, 1
  br i1 %21, label %22, label %24, !prof !19

22:                                               ; preds = %19
  %23 = add nsw i32 %20, -1
  store i32 %23, ptr %1, align 4, !tbaa !3
  br label %_ZN4lean10object_refD2Ev.exit

24:                                               ; preds = %19
  %.not.i.i.i4 = icmp eq i32 %20, 0
  br i1 %.not.i.i.i4, label %_ZN4lean10object_refD2Ev.exit, label %25

25:                                               ; preds = %24
  invoke void @lean_dec_ref_cold(ptr noundef nonnull %1)
          to label %_ZN4lean10object_refD2Ev.exit unwind label %26

26:                                               ; preds = %25
  %27 = landingpad { ptr, i32 }
          catch ptr null
  %28 = extractvalue { ptr, i32 } %27, 0
  tail call void @__clang_call_terminate(ptr %28) #13
  unreachable

_ZN4lean10object_refD2Ev.exit:                    ; preds = %17, %22, %24, %25
  resume { ptr, i32 } %18

29:                                               ; preds = %12
  unreachable
}